target datalayout = "e-m:e-p270:32:32-p271:32:32-p272:64:64-i64:64-i128:128-f80:128-n8:16:32:64-S128"
target triple = "x86_64-pc-linux-gnu"

%struct.darktable_t = type { %struct.dt_codepath_t, i32, i32, ptr, ptr, ptr, ptr, ptr, ptr, ptr, ptr, ptr, ptr, ptr, ptr, ptr, ptr, ptr, ptr, ptr, ptr, ptr, ptr, ptr, ptr, ptr, ptr, ptr, ptr, ptr, [64 x %struct.dt_pthread_mutex_t], %struct.dt_pthread_mutex_t, %struct.dt_pthread_mutex_t, %struct.dt_pthread_mutex_t, %struct.dt_pthread_mutex_t, %struct.dt_pthread_mutex_t, ptr, ptr, ptr, ptr, ptr, ptr, ptr, ptr, ptr, ptr, ptr, ptr, ptr, %struct.dt_lua_state_t, ptr, double, ptr, i32, [47 x i32], i32, i32, ptr, ptr, %struct.dt_sys_resources_t, %struct.dt_backthumb_t, %struct.dt_gimp_t }
%struct.dt_codepath_t = type { i8, [3 x i8] }
%struct.dt_pthread_mutex_t = type { %union.pthread_mutex_t }
%union.pthread_mutex_t = type { %struct.__pthread_mutex_s }
%struct.__pthread_mutex_s = type { i32, i32, i32, i32, i32, i16, i16, %struct.__pthread_internal_list }
%struct.__pthread_internal_list = type { ptr, ptr }
%struct.dt_lua_state_t = type { i32 }
%struct.dt_sys_resources_t = type { i64, i64, ptr, ptr, i32 }
%struct.dt_backthumb_t = type { double, double, i32, i32, i32, i32 }
%struct.dt_gimp_t = type { i32, ptr, ptr, i32, i32 }
%struct.dt_lib_module_t = type { %struct.dt_action_t, ptr, ptr, ptr, ptr, ptr, ptr, ptr, ptr, ptr, ptr, ptr, ptr, ptr, ptr, ptr, ptr, ptr, ptr, ptr, ptr, ptr, ptr, ptr, ptr, ptr, ptr, ptr, ptr, ptr, ptr, [128 x i8], ptr, ptr, i32, ptr, ptr, ptr, i32 }
%struct.dt_action_t = type { i32, ptr, ptr, ptr, ptr, ptr }
%struct.dt_lib_module_info_t = type { ptr, i32, ptr, i32, ptr }

@darktable = external global %struct.darktable_t, align 8
@.str.3 = private unnamed_addr constant [112 x i8] c"generated/home/dtcxzyw/WorkSpace/Projects/compilers/llvm-opt-benchmark/bench/darktable/darktable/src/libs/lib.c\00", align 1
@.str.21 = private unnamed_addr constant [40 x i8] c"[signal] raise %s; %s:%d, function %s()\00", align 1
@.str.22 = private unnamed_addr constant [26 x i8] c"DT_SIGNAL_PRESETS_CHANGED\00", align 1
@.str.70 = private unnamed_addr constant [51 x i8] c"plugins/lighttable/preset/ask_before_delete_preset\00", align 1
@.str.71 = private unnamed_addr constant [15 x i8] c"delete preset?\00", align 1
@.str.72 = private unnamed_addr constant [46 x i8] c"do you really want to delete the preset `%s'?\00", align 1
@__FUNCTION__.menuitem_delete_preset = private unnamed_addr constant [23 x i8] c"menuitem_delete_preset\00", align 1

; Function Attrs: nounwind uwtable
define internal void @menuitem_delete_preset(ptr noundef %0, ptr noundef %1) #0 {
  %3 = alloca ptr, align 8
  %4 = alloca ptr, align 8
  %5 = alloca ptr, align 8
  %6 = alloca i32, align 4
  store ptr %0, ptr %3, align 8, !tbaa !222
  store ptr %1, ptr %4, align 8, !tbaa !66
  call void @llvm.lifetime.start.p0(i64 8, ptr %5) #12
  %7 = load ptr, ptr %4, align 8, !tbaa !66
  %8 = call ptr @dt_lib_get_active_preset_name(ptr noundef %7)
  store ptr %8, ptr %5, align 8, !tbaa !63
  %9 = load ptr, ptr %5, align 8, !tbaa !63
  %10 = icmp eq ptr %9, null
  br i1 %10, label %11, label %12

11:                                               ; preds = %2
  store i32 1, ptr %6, align 4
  br label %65

12:                                               ; preds = %2
  %13 = call i32 @dt_conf_get_bool(ptr noundef @.str.70)
  %14 = icmp ne i32 %13, 0
  br i1 %14, label %15, label %21

15:                                               ; preds = %12
  %16 = call ptr @dcgettext(ptr noundef null, ptr noundef @.str.71, i32 noundef 5) #12
  %17 = call ptr @dcgettext(ptr noundef null, ptr noundef @.str.72, i32 noundef 5) #12
  %18 = load ptr, ptr %5, align 8, !tbaa !63
  %19 = call i32 (ptr, ptr, ...) @dt_gui_show_yes_no_dialog(ptr noundef %16, ptr noundef %17, ptr noundef %18)
  %20 = icmp ne i32 %19, 0
  br i1 %20, label %21, label %63

21:                                               ; preds = %15, %12
  %22 = load ptr, ptr %4, align 8, !tbaa !66
  %23 = getelementptr inbounds nuw %struct.dt_lib_module_info_t, ptr %22, i32 0, i32 4
  %24 = load ptr, ptr %23, align 8, !tbaa !122
  %25 = getelementptr inbounds nuw %struct.dt_lib_module_t, ptr %24, i32 0, i32 0
  %26 = load ptr, ptr %5, align 8, !tbaa !63
  call void @dt_action_rename_preset(ptr noundef %25, ptr noundef %26, ptr noundef null)
  %27 = load ptr, ptr %5, align 8, !tbaa !63
  %28 = load ptr, ptr %4, align 8, !tbaa !66
  %29 = getelementptr inbounds nuw %struct.dt_lib_module_info_t, ptr %28, i32 0, i32 0
  %30 = load ptr, ptr %29, align 8, !tbaa !73
  %31 = load ptr, ptr %4, align 8, !tbaa !66
  %32 = getelementptr inbounds nuw %struct.dt_lib_module_info_t, ptr %31, i32 0, i32 1
  %33 = load i32, ptr %32, align 8, !tbaa !75
  call void @dt_lib_presets_remove(ptr noundef %27, ptr noundef %30, i32 noundef %33)
  br label %34

34:                                               ; preds = %21
  %35 = load i32, ptr getelementptr inbounds nuw (%struct.darktable_t, ptr @darktable, i32 0, i32 53), align 8, !tbaa !100
  %36 = and i32 %35, 1
  %37 = icmp ne i32 %36, 0
  br i1 %37, label %38, label %55

38:                                               ; preds = %34
  %39 = load i32, ptr getelementptr inbounds ([47 x i32], ptr getelementptr inbounds nuw (%struct.darktable_t, ptr @darktable, i32 0, i32 54), i64 0, i64 18), align 4, !tbaa !62
  %40 = icmp ne i32 %39, 0
  br i1 %40, label %41, label %55

41:                                               ; preds = %38
  br label %42

42:                                               ; preds = %41
  %43 = load i32, ptr getelementptr inbounds nuw (%struct.darktable_t, ptr @darktable, i32 0, i32 2), align 8, !tbaa !21
  %44 = and i32 1048576, %43
  %45 = icmp ne i32 %44, 0
  br i1 %45, label %46, label %52

46:                                               ; preds = %42
  %47 = load i32, ptr getelementptr inbounds nuw (%struct.darktable_t, ptr @darktable, i32 0, i32 2), align 8, !tbaa !21
  %48 = xor i32 %47, -1
  %49 = and i32 0, %48
  %50 = icmp ne i32 %49, 0
  br i1 %50, label %52, label %51

51:                                               ; preds = %46
  call void (ptr, ...) @dt_print_ext(ptr noundef @.str.21, ptr noundef @.str.22, ptr noundef @.str.3, i32 noundef 242, ptr noundef @__FUNCTION__.menuitem_delete_preset)
  br label %52

52:                                               ; preds = %51, %46, %42
  br label %53

53:                                               ; preds = %52
  br label %54

54:                                               ; preds = %53
  br label %55

55:                                               ; preds = %54, %38, %34
  %56 = load ptr, ptr getelementptr inbounds nuw (%struct.darktable_t, ptr @darktable, i32 0, i32 13), align 8, !tbaa !101
  %57 = load ptr, ptr %4, align 8, !tbaa !66
  %58 = getelementptr inbounds nuw %struct.dt_lib_module_info_t, ptr %57, i32 0, i32 0
  %59 = load ptr, ptr %58, align 8, !tbaa !73
  %60 = call noalias ptr @g_strdup(ptr noundef %59)
  call void (ptr, i32, ...) @dt_control_signal_raise(ptr noundef %56, i32 noundef 18, ptr noundef %60)
  br label %61

61:                                               ; preds = %55
  br label %62

62:                                               ; preds = %61
  br label %63

63:                                               ; preds = %62, %15
  %64 = load ptr, ptr %5, align 8, !tbaa !63
  call void @g_free(ptr noundef %64)
  store i32 0, ptr %6, align 4
  br label %65

65:                                               ; preds = %63, %11
  call void @llvm.lifetime.end.p0(i64 8, ptr %5) #12
  %66 = load i32, ptr %6, align 4
  switch i32 %66, label %68 [
    i32 0, label %67
    i32 1, label %67
  ]

67:                                               ; preds = %65, %65
  ret void

68:                                               ; preds = %65
  unreachable
}