; Function Attrs: nounwind uwtable
define internal void @menuitem_delete_preset(ptr readnone captures(none) %0, ptr noundef readonly captures(none) %1) #0 {
  %3 = tail call ptr @dt_lib_get_active_preset_name(ptr noundef %1)
  %4 = icmp eq ptr %3, null
  br i1 %4, label %31, label %5

5:                                                ; preds = %2
  %6 = tail call i32 @dt_conf_get_bool(ptr noundef nonnull @.str.70) #19
  %.not = icmp eq i32 %6, 0
  br i1 %.not, label %11, label %7

7:                                                ; preds = %5
  %8 = tail call ptr @dcgettext(ptr noundef null, ptr noundef nonnull @.str.71, i32 noundef 5) #19
  %9 = tail call ptr @dcgettext(ptr noundef null, ptr noundef nonnull @.str.72, i32 noundef 5) #19
  %10 = tail call i32 (ptr, ptr, ...) @dt_gui_show_yes_no_dialog(ptr noundef %8, ptr noundef %9, ptr noundef nonnull %3) #19
  %.not11 = icmp eq i32 %10, 0
  br i1 %.not11, label %30, label %11

11:                                               ; preds = %7, %5
  %12 = getelementptr inbounds nuw i8, ptr %1, i64 32
  %13 = load ptr, ptr %12, align 8, !tbaa !104
  tail call void @dt_action_rename_preset(ptr noundef %13, ptr noundef nonnull %3, ptr noundef null) #19
  %14 = load ptr, ptr %1, align 8, !tbaa !65
  %15 = getelementptr inbounds nuw i8, ptr %1, i64 8
  %16 = load i32, ptr %15, align 8, !tbaa !68
  tail call void @dt_lib_presets_remove(ptr noundef nonnull %3, ptr noundef %14, i32 noundef %16)
  %17 = load i32, ptr getelementptr inbounds nuw (i8, ptr @darktable, i64 3128), align 8, !tbaa !81
  %18 = and i32 %17, 1
  %19 = icmp ne i32 %18, 0
  %20 = load i32, ptr getelementptr inbounds nuw (i8, ptr @darktable, i64 3204), align 4
  %21 = icmp ne i32 %20, 0
  %or.cond = select i1 %19, i1 %21, i1 false
  br i1 %or.cond, label %22, label %26

22:                                               ; preds = %11
  %23 = load i32, ptr getelementptr inbounds nuw (i8, ptr @darktable, i64 8), align 8, !tbaa !59
  %24 = and i32 %23, 1048576
  %.not12 = icmp eq i32 %24, 0
  br i1 %.not12, label %26, label %25

25:                                               ; preds = %22
  tail call void (ptr, ...) @dt_print_ext(ptr noundef nonnull @.str.21, ptr noundef nonnull @.str.22, ptr noundef nonnull @.str.3, i32 noundef 242, ptr noundef nonnull @__FUNCTION__.menuitem_delete_preset) #19
  br label %26

26:                                               ; preds = %22, %25, %11
  %27 = load ptr, ptr getelementptr inbounds nuw (i8, ptr @darktable, i64 96), align 8, !tbaa !82
  %28 = load ptr, ptr %1, align 8, !tbaa !65
  %29 = tail call noalias ptr @g_strdup(ptr noundef %28) #19
  tail call void (ptr, i32, ...) @dt_control_signal_raise(ptr noundef %27, i32 noundef 18, ptr noundef %29) #19
  br label %30

30:                                               ; preds = %26, %7
  tail call void @g_free(ptr noundef nonnull %3) #19
  br label %31

31:                                               ; preds = %2, %30
  ret void
}